target datalayout = "e-m:e-p270:32:32-p271:32:32-p272:64:64-i64:64-i128:128-f80:128-n8:16:32:64-S128"
target triple = "x86_64-pc-linux-gnu"

%struct.AttributeConversion = type { i8, i32 }
%"class.icu_77::MaybeStackArray" = type <{ ptr, i32, i8, [40 x i8], [3 x i8] }>
%struct.CollatorSpec = type { [6 x %"class.icu_77::CharString"], %"class.icu_77::CharString", [8 x i32], i32, [32 x i16], i32, i8, [7 x i8], [17 x %"class.icu_77::CharString"] }
%"class.icu_77::CharString" = type { %"class.icu_77::MaybeStackArray", i32, [4 x i8] }

; Function Attrs: inlinehint mustprogress nounwind uwtable
define internal noundef signext i8 @_ZL9U_FAILURE10UErrorCode(i32 noundef %0) #2 {
  %2 = alloca i32, align 4
  store i32 %0, ptr %2, align 4, !tbaa !15
  %3 = load i32, ptr %2, align 4, !tbaa !15
  %4 = icmp sgt i32 %3, 0
  %5 = zext i1 %4 to i8
  ret i8 %5
}

; Function Attrs: mustprogress nounwind uwtable
define internal noundef i32 @_ZL31ucol_sit_letterToAttributeValuecP10UErrorCode(i8 noundef signext %0, ptr noundef %1) #0 {
  %3 = alloca i32, align 4
  %4 = alloca i8, align 1
  %5 = alloca ptr, align 8
  %6 = alloca i32, align 4
  %7 = alloca i32, align 4
  store i8 %0, ptr %4, align 1, !tbaa !23
  store ptr %1, ptr %5, align 8, !tbaa !22
  call void @llvm.lifetime.start.p0(i64 4, ptr %6) #12
  store i32 0, ptr %6, align 4, !tbaa !14
  store i32 0, ptr %6, align 4, !tbaa !14
  br label %8

8:                                                ; preds = %28, %2
  %9 = load i32, ptr %6, align 4, !tbaa !14
  %10 = icmp ult i32 %9, 12
  br i1 %10, label %11, label %31

11:                                               ; preds = %8
  %12 = load i32, ptr %6, align 4, !tbaa !14
  %13 = zext i32 %12 to i64
  %14 = getelementptr inbounds nuw [12 x %struct.AttributeConversion], ptr @_ZL11conversions, i64 0, i64 %13
  %15 = getelementptr inbounds nuw %struct.AttributeConversion, ptr %14, i32 0, i32 0
  %16 = load i8, ptr %15, align 8, !tbaa !76
  %17 = sext i8 %16 to i32
  %18 = load i8, ptr %4, align 1, !tbaa !23
  %19 = sext i8 %18 to i32
  %20 = icmp eq i32 %17, %19
  br i1 %20, label %21, label %27

21:                                               ; preds = %11
  %22 = load i32, ptr %6, align 4, !tbaa !14
  %23 = zext i32 %22 to i64
  %24 = getelementptr inbounds nuw [12 x %struct.AttributeConversion], ptr @_ZL11conversions, i64 0, i64 %23
  %25 = getelementptr inbounds nuw %struct.AttributeConversion, ptr %24, i32 0, i32 1
  %26 = load i32, ptr %25, align 4, !tbaa !78
  store i32 %26, ptr %3, align 4
  store i32 1, ptr %7, align 4
  br label %33

27:                                               ; preds = %11
  br label %28

28:                                               ; preds = %27
  %29 = load i32, ptr %6, align 4, !tbaa !14
  %30 = add i32 %29, 1
  store i32 %30, ptr %6, align 4, !tbaa !14
  br label %8, !llvm.loop !79

31:                                               ; preds = %8
  %32 = load ptr, ptr %5, align 8, !tbaa !22
  store i32 1, ptr %32, align 4, !tbaa !15
  store i32 -1, ptr %3, align 4
  store i32 1, ptr %7, align 4
  br label %33

33:                                               ; preds = %31, %21
  call void @llvm.lifetime.end.p0(i64 4, ptr %6) #12
  %34 = load i32, ptr %3, align 4
  ret i32 %34
}

; Function Attrs: mustprogress uwtable
define internal noundef ptr @_ZL22_processCollatorOptionP12CollatorSpecjPKcP10UErrorCode(ptr noundef %0, i32 noundef %1, ptr noundef %2, ptr noundef %3) #1 {
  %5 = alloca ptr, align 8
  %6 = alloca i32, align 4
  %7 = alloca ptr, align 8
  %8 = alloca ptr, align 8
  store ptr %0, ptr %5, align 8, !tbaa !35
  store i32 %1, ptr %6, align 4, !tbaa !14
  store ptr %2, ptr %7, align 8, !tbaa !17
  store ptr %3, ptr %8, align 8, !tbaa !22
  %9 = load ptr, ptr %7, align 8, !tbaa !17
  %10 = load i8, ptr %9, align 1, !tbaa !23
  %11 = load ptr, ptr %8, align 8, !tbaa !22
  %12 = call noundef i32 @_ZL31ucol_sit_letterToAttributeValuecP10UErrorCode(i8 noundef signext %10, ptr noundef %11)
  %13 = load ptr, ptr %5, align 8, !tbaa !35
  %14 = getelementptr inbounds nuw %struct.CollatorSpec, ptr %13, i32 0, i32 2
  %15 = load i32, ptr %6, align 4, !tbaa !14
  %16 = zext i32 %15 to i64
  %17 = getelementptr inbounds nuw [8 x i32], ptr %14, i64 0, i64 %16
  store i32 %12, ptr %17, align 4, !tbaa !41
  %18 = load ptr, ptr %7, align 8, !tbaa !17
  %19 = getelementptr inbounds nuw i8, ptr %18, i32 1
  store ptr %19, ptr %7, align 8, !tbaa !17
  %20 = load i8, ptr %19, align 1, !tbaa !23
  %21 = sext i8 %20 to i32
  %22 = icmp ne i32 %21, 95
  br i1 %22, label %23, label %27

23:                                               ; preds = %4
  %24 = load ptr, ptr %7, align 8, !tbaa !17
  %25 = load i8, ptr %24, align 1, !tbaa !23
  %26 = icmp ne i8 %25, 0
  br i1 %26, label %32, label %27

27:                                               ; preds = %23, %4
  %28 = load ptr, ptr %8, align 8, !tbaa !22
  %29 = load i32, ptr %28, align 4, !tbaa !15
  %30 = call noundef signext i8 @_ZL9U_FAILURE10UErrorCode(i32 noundef %29)
  %31 = icmp ne i8 %30, 0
  br i1 %31, label %32, label %34

32:                                               ; preds = %27, %23
  %33 = load ptr, ptr %8, align 8, !tbaa !22
  store i32 1, ptr %33, align 4, !tbaa !15
  br label %34

34:                                               ; preds = %32, %27
  %35 = load ptr, ptr %7, align 8, !tbaa !17
  ret ptr %35
}