; Function Attrs: mustprogress nofree norecurse nosync nounwind memory(argmem: readwrite) uwtable
define internal noundef nonnull ptr @_ZL22_processCollatorOptionP12CollatorSpecjPKcP10UErrorCode(ptr noundef writeonly captures(none) %0, i32 noundef %1, ptr noundef readonly %2, ptr noundef captures(none) %3) #11 {
  %5 = load i8, ptr %2, align 1, !tbaa !22
  br label %7

6:                                                ; preds = %7
  %indvars.iv.next.i = add nuw nsw i64 %indvars.iv.i, 1
  %exitcond.not.i = icmp eq i64 %indvars.iv.next.i, 12
  br i1 %exitcond.not.i, label %14, label %7, !llvm.loop !42

7:                                                ; preds = %6, %4
  %indvars.iv.i = phi i64 [ 0, %4 ], [ %indvars.iv.next.i, %6 ]
  %8 = getelementptr inbounds nuw [12 x %struct.AttributeConversion], ptr @_ZL11conversions, i64 0, i64 %indvars.iv.i
  %9 = load i8, ptr %8, align 8, !tbaa !43
  %10 = icmp eq i8 %9, %5
  br i1 %10, label %11, label %6

11:                                               ; preds = %7
  %12 = getelementptr inbounds nuw [12 x %struct.AttributeConversion], ptr @_ZL11conversions, i64 0, i64 %indvars.iv.i, i32 1
  %13 = load i32, ptr %12, align 4, !tbaa !45
  br label %_ZL31ucol_sit_letterToAttributeValuecP10UErrorCode.exit

14:                                               ; preds = %6
  store i32 1, ptr %3, align 4, !tbaa !13
  br label %_ZL31ucol_sit_letterToAttributeValuecP10UErrorCode.exit

_ZL31ucol_sit_letterToAttributeValuecP10UErrorCode.exit: ; preds = %11, %14
  %.06.i = phi i32 [ %13, %11 ], [ -1, %14 ]
  %15 = getelementptr inbounds nuw i8, ptr %0, i64 448
  %16 = zext i32 %1 to i64
  %17 = getelementptr inbounds nuw [8 x i32], ptr %15, i64 0, i64 %16
  store i32 %.06.i, ptr %17, align 4, !tbaa !25
  %18 = getelementptr inbounds nuw i8, ptr %2, i64 1
  %19 = load i8, ptr %18, align 1, !tbaa !22
  switch i8 %19, label %23 [
    i8 95, label %20
    i8 0, label %20
  ]

20:                                               ; preds = %_ZL31ucol_sit_letterToAttributeValuecP10UErrorCode.exit, %_ZL31ucol_sit_letterToAttributeValuecP10UErrorCode.exit
  %21 = load i32, ptr %3, align 4, !tbaa !13
  %22 = icmp slt i32 %21, 1
  br i1 %22, label %24, label %23

23:                                               ; preds = %_ZL31ucol_sit_letterToAttributeValuecP10UErrorCode.exit, %20
  store i32 1, ptr %3, align 4, !tbaa !13
  br label %24

24:                                               ; preds = %23, %20
  ret ptr %18
}